target datalayout = "e-m:e-p270:32:32-p271:32:32-p272:64:64-i64:64-i128:128-f80:128-n8:16:32:64-S128"
target triple = "x86_64-pc-linux-gnu"

%struct._zend_fiber_stack = type { ptr, i64 }

; Function Attrs: nounwind uwtable
define dso_local ptr @zend_fiber_stack_base(ptr noundef %0) #0 {
  %2 = alloca ptr, align 8
  store ptr %0, ptr %2, align 8, !tbaa !4
  %3 = load ptr, ptr %2, align 8, !tbaa !4
  %4 = getelementptr inbounds nuw %struct._zend_fiber_stack, ptr %3, i32 0, i32 0
  %5 = load ptr, ptr %4, align 8, !tbaa !45
  %6 = ptrtoint ptr %5 to i64
  %7 = load ptr, ptr %2, align 8, !tbaa !4
  %8 = getelementptr inbounds nuw %struct._zend_fiber_stack, ptr %7, i32 0, i32 1
  %9 = load i64, ptr %8, align 8, !tbaa !47
  %10 = add i64 %6, %9
  %11 = inttoptr i64 %10 to ptr
  ret ptr %11
}