; Function Attrs: mustprogress nofree norecurse nosync nounwind willreturn memory(argmem: read) uwtable
define dso_local ptr @zend_fiber_stack_base(ptr noundef readonly captures(none) %0) local_unnamed_addr #2 {
  %2 = load ptr, ptr %0, align 8, !tbaa !42
  %3 = ptrtoint ptr %2 to i64
  %4 = getelementptr inbounds nuw i8, ptr %0, i64 8
  %5 = load i64, ptr %4, align 8, !tbaa !44
  %6 = add i64 %5, %3
  %7 = inttoptr i64 %6 to ptr
  ret ptr %7
}